target datalayout = "e-m:e-p270:32:32-p271:32:32-p272:64:64-i64:64-i128:128-f80:128-n8:16:32:64-S128"
target triple = "x86_64-unknown-linux-gnu"

%"class.std::__cxx11::basic_string" = type { %"struct.std::__cxx11::basic_string<char>::_Alloc_hider", i64, %union.anon.21 }
%"struct.std::__cxx11::basic_string<char>::_Alloc_hider" = type { ptr }
%union.anon.21 = type { i64, [8 x i8] }
%"class.std::vector.45" = type { %"struct.std::_Vector_base.46" }
%"struct.std::_Vector_base.46" = type { %"struct.std::_Vector_base<OpenImageIO_v2_6_0::PSDInput::ChannelInfo, std::allocator<OpenImageIO_v2_6_0::PSDInput::ChannelInfo>>::_Vector_impl" }
%"struct.std::_Vector_base<OpenImageIO_v2_6_0::PSDInput::ChannelInfo, std::allocator<OpenImageIO_v2_6_0::PSDInput::ChannelInfo>>::_Vector_impl" = type { %"struct.std::_Vector_base<OpenImageIO_v2_6_0::PSDInput::ChannelInfo, std::allocator<OpenImageIO_v2_6_0::PSDInput::ChannelInfo>>::_Vector_impl_data" }
%"struct.std::_Vector_base<OpenImageIO_v2_6_0::PSDInput::ChannelInfo, std::allocator<OpenImageIO_v2_6_0::PSDInput::ChannelInfo>>::_Vector_impl_data" = type { ptr, ptr, ptr }
%"struct.std::_Rb_tree_header" = type { %"struct.std::_Rb_tree_node_base", i64 }
%"struct.std::_Rb_tree_node_base" = type { i32, ptr, ptr, ptr }
%"struct.OpenImageIO_v2_6_0::PSDInput::ChannelInfo" = type { i32, i16, i64, i64, i16, %"class.std::vector.68", %"class.std::vector.73" }
%"class.std::vector.68" = type { %"struct.std::_Vector_base.69" }
%"struct.std::_Vector_base.69" = type { %"struct.std::_Vector_base<unsigned int, std::allocator<unsigned int>>::_Vector_impl" }
%"struct.std::_Vector_base<unsigned int, std::allocator<unsigned int>>::_Vector_impl" = type { %"struct.std::_Vector_base<unsigned int, std::allocator<unsigned int>>::_Vector_impl_data" }
%"struct.std::_Vector_base<unsigned int, std::allocator<unsigned int>>::_Vector_impl_data" = type { ptr, ptr, ptr }
%"class.std::vector.73" = type { %"struct.std::_Vector_base.74" }
%"struct.std::_Vector_base.74" = type { %"struct.std::_Vector_base<long, std::allocator<long>>::_Vector_impl" }
%"struct.std::_Vector_base<long, std::allocator<long>>::_Vector_impl" = type { %"struct.std::_Vector_base<long, std::allocator<long>>::_Vector_impl_data" }
%"struct.std::_Vector_base<long, std::allocator<long>>::_Vector_impl_data" = type { ptr, ptr, ptr }
%"struct.OpenImageIO_v2_6_0::PSDInput::Layer" = type { i32, i32, i32, i32, i32, i32, i16, %"class.std::vector.45", %"class.std::map.120", [4 x i8], i8, i8, i8, i32, %"struct.OpenImageIO_v2_6_0::PSDInput::Layer::MaskData", %"class.std::__cxx11::basic_string", %"class.std::vector.128" }
%"class.std::map.120" = type { %"class.std::_Rb_tree.121" }
%"class.std::_Rb_tree.121" = type { %"struct.std::_Rb_tree<short, std::pair<const short, OpenImageIO_v2_6_0::PSDInput::ChannelInfo *>, std::_Select1st<std::pair<const short, OpenImageIO_v2_6_0::PSDInput::ChannelInfo *>>, std::less<short>>::_Rb_tree_impl" }
%"struct.std::_Rb_tree<short, std::pair<const short, OpenImageIO_v2_6_0::PSDInput::ChannelInfo *>, std::_Select1st<std::pair<const short, OpenImageIO_v2_6_0::PSDInput::ChannelInfo *>>, std::less<short>>::_Rb_tree_impl" = type { %"struct.std::_Rb_tree_key_compare.125", %"struct.std::_Rb_tree_header" }
%"struct.std::_Rb_tree_key_compare.125" = type { %"struct.std::less.126" }
%"struct.std::less.126" = type { i8 }
%"struct.OpenImageIO_v2_6_0::PSDInput::Layer::MaskData" = type { i32, i32, i32, i32, i8, i8 }
%"class.std::vector.128" = type { %"struct.std::_Vector_base.129" }
%"struct.std::_Vector_base.129" = type { %"struct.std::_Vector_base<OpenImageIO_v2_6_0::PSDInput::Layer::AdditionalInfo, std::allocator<OpenImageIO_v2_6_0::PSDInput::Layer::AdditionalInfo>>::_Vector_impl" }
%"struct.std::_Vector_base<OpenImageIO_v2_6_0::PSDInput::Layer::AdditionalInfo, std::allocator<OpenImageIO_v2_6_0::PSDInput::Layer::AdditionalInfo>>::_Vector_impl" = type { %"struct.std::_Vector_base<OpenImageIO_v2_6_0::PSDInput::Layer::AdditionalInfo, std::allocator<OpenImageIO_v2_6_0::PSDInput::Layer::AdditionalInfo>>::_Vector_impl_data" }
%"struct.std::_Vector_base<OpenImageIO_v2_6_0::PSDInput::Layer::AdditionalInfo, std::allocator<OpenImageIO_v2_6_0::PSDInput::Layer::AdditionalInfo>>::_Vector_impl_data" = type { ptr, ptr, ptr }

; Function Attrs: mustprogress nounwind uwtable
define linkonce_odr hidden noundef nonnull align 8 dereferenceable(80) ptr @_ZNSt6vectorIN18OpenImageIO_v2_6_08PSDInput11ChannelInfoESaIS2_EEixEm(ptr noundef nonnull align 8 dereferenceable(24) %this, i64 noundef %__n) #4 comdat align 2 {
entry:
  %this.addr = alloca ptr, align 8
  %__n.addr = alloca i64, align 8
  store ptr %this, ptr %this.addr, align 8
  store i64 %__n, ptr %__n.addr, align 8
  %this1 = load ptr, ptr %this.addr, align 8
  %_M_impl = getelementptr inbounds %"struct.std::_Vector_base.46", ptr %this1, i32 0, i32 0
  %_M_start = getelementptr inbounds %"struct.std::_Vector_base<OpenImageIO_v2_6_0::PSDInput::ChannelInfo, std::allocator<OpenImageIO_v2_6_0::PSDInput::ChannelInfo>>::_Vector_impl_data", ptr %_M_impl, i32 0, i32 0
  %0 = load ptr, ptr %_M_start, align 8
  %1 = load i64, ptr %__n.addr, align 8
  %add.ptr = getelementptr inbounds %"struct.OpenImageIO_v2_6_0::PSDInput::ChannelInfo", ptr %0, i64 %1
  ret ptr %add.ptr
}

; Function Attrs: mustprogress uwtable
define hidden noundef zeroext i1 @_ZN18OpenImageIO_v2_6_08PSDInput19load_layer_channelsERNS0_5LayerE(ptr noundef nonnull align 8 dereferenceable(840) %this, ptr noundef nonnull align 8 dereferenceable(192) %layer) #6 align 2 {
entry:
  %retval = alloca i1, align 1
  %this.addr = alloca ptr, align 8
  %layer.addr = alloca ptr, align 8
  %channel = alloca i16, align 2
  %channel_info = alloca ptr, align 8
  store ptr %this, ptr %this.addr, align 8
  store ptr %layer, ptr %layer.addr, align 8
  %this1 = load ptr, ptr %this.addr, align 8
  store i16 0, ptr %channel, align 2
  br label %for.cond

for.cond:                                         ; preds = %for.inc, %entry
  %0 = load i16, ptr %channel, align 2
  %conv = zext i16 %0 to i32
  %1 = load ptr, ptr %layer.addr, align 8
  %channel_count = getelementptr inbounds %"struct.OpenImageIO_v2_6_0::PSDInput::Layer", ptr %1, i32 0, i32 6
  %2 = load i16, ptr %channel_count, align 8
  %conv2 = zext i16 %2 to i32
  %cmp = icmp slt i32 %conv, %conv2
  br i1 %cmp, label %for.body, label %for.end

for.body:                                         ; preds = %for.cond
  %3 = load ptr, ptr %layer.addr, align 8
  %channel_info3 = getelementptr inbounds %"struct.OpenImageIO_v2_6_0::PSDInput::Layer", ptr %3, i32 0, i32 7
  %4 = load i16, ptr %channel, align 2
  %conv4 = zext i16 %4 to i64
  %call = call noundef nonnull align 8 dereferenceable(80) ptr @_ZNSt6vectorIN18OpenImageIO_v2_6_08PSDInput11ChannelInfoESaIS2_EEixEm(ptr noundef nonnull align 8 dereferenceable(24) %channel_info3, i64 noundef %conv4) #3
  store ptr %call, ptr %channel_info, align 8
  %5 = load ptr, ptr %layer.addr, align 8
  %6 = load ptr, ptr %channel_info, align 8
  %call5 = call noundef zeroext i1 @_ZN18OpenImageIO_v2_6_08PSDInput18load_layer_channelERNS0_5LayerERNS0_11ChannelInfoE(ptr noundef nonnull align 8 dereferenceable(840) %this1, ptr noundef nonnull align 8 dereferenceable(192) %5, ptr noundef nonnull align 8 dereferenceable(80) %6)
  br i1 %call5, label %if.end, label %if.then

if.then:                                          ; preds = %for.body
  store i1 false, ptr %retval, align 1
  br label %return

if.end:                                           ; preds = %for.body
  br label %for.inc

for.inc:                                          ; preds = %if.end
  %7 = load i16, ptr %channel, align 2
  %inc = add i16 %7, 1
  store i16 %inc, ptr %channel, align 2
  br label %for.cond, !llvm.loop !55

for.end:                                          ; preds = %for.cond
  store i1 true, ptr %retval, align 1
  br label %return

return:                                           ; preds = %for.end, %if.then
  %8 = load i1, ptr %retval, align 1
  ret i1 %8
}