; Function Attrs: mustprogress uwtable
define hidden noundef zeroext i1 @_ZN18OpenImageIO_v2_6_08PSDInput19load_layer_channelsERNS0_5LayerE(ptr noundef nonnull align 8 dereferenceable(840) %this, ptr nocapture noundef nonnull readonly align 8 dereferenceable(192) %layer) local_unnamed_addr #5 align 2 {
entry:
  %channel_count = getelementptr inbounds i8, ptr %layer, i64 24
  %0 = load i16, ptr %channel_count, align 8
  %cmp5 = icmp eq i16 %0, 0
  br i1 %cmp5, label %return, label %for.body.lr.ph

for.body.lr.ph:                                   ; preds = %entry
  %channel_info3 = getelementptr inbounds i8, ptr %layer, i64 32
  br label %for.body

for.cond:                                         ; preds = %for.body
  %indvars.iv.next = add nuw nsw i64 %indvars.iv, 1
  %1 = load i16, ptr %channel_count, align 8
  %2 = zext i16 %1 to i64
  %cmp.not = icmp ult i64 %indvars.iv.next, %2
  br i1 %cmp.not, label %for.body, label %return, !llvm.loop !21

for.body:                                         ; preds = %for.body.lr.ph, %for.cond
  %indvars.iv = phi i64 [ 0, %for.body.lr.ph ], [ %indvars.iv.next, %for.cond ]
  %3 = load ptr, ptr %channel_info3, align 8
  %add.ptr.i = getelementptr inbounds %"struct.OpenImageIO_v2_6_0::PSDInput::ChannelInfo", ptr %3, i64 %indvars.iv
  %call5 = tail call noundef zeroext i1 @_ZN18OpenImageIO_v2_6_08PSDInput18load_layer_channelERNS0_5LayerERNS0_11ChannelInfoE(ptr noundef nonnull align 8 dereferenceable(840) %this, ptr noundef nonnull align 8 dereferenceable(192) %layer, ptr noundef nonnull align 8 dereferenceable(80) %add.ptr.i)
  br i1 %call5, label %for.cond, label %return

return:                                           ; preds = %for.body, %for.cond, %entry
  %cmp.lcssa = phi i1 [ true, %entry ], [ %call5, %for.cond ], [ %call5, %for.body ]
  ret i1 %cmp.lcssa
}